; Function Attrs: mustprogress uwtable
define noundef zeroext i1 @_ZN7rocksdb6DBIter12PrepareValueEv(ptr noundef nonnull align 8 dereferenceable(1112) %0) unnamed_addr #6 align 2 {
  %2 = alloca %"class.rocksdb::Slice", align 8
  %3 = getelementptr inbounds nuw i8, ptr %0, i64 888
  %4 = load i64, ptr %3, align 8, !tbaa !150
  %5 = icmp eq i64 %4, 0
  br i1 %5, label %16, label %6

6:                                                ; preds = %1
  %7 = getelementptr inbounds nuw i8, ptr %0, i64 880
  call void @llvm.lifetime.start.p0(i64 16, ptr nonnull %2) #25
  %8 = getelementptr inbounds nuw i8, ptr %0, i64 327
  %9 = load i8, ptr %8, align 1, !tbaa !189, !range !171, !noundef !172
  %10 = trunc nuw i8 %9 to i1
  %11 = getelementptr inbounds nuw i8, ptr %0, i64 272
  %12 = load i64, ptr %11, align 8
  %13 = add i64 %12, -8
  %.sroa.3.0.i = select i1 %10, i64 %12, i64 %13
  %.sroa.0.0.in.i = getelementptr inbounds nuw i8, ptr %0, i64 264
  %.sroa.0.0.i = load ptr, ptr %.sroa.0.0.in.i, align 8, !tbaa !186
  store ptr %.sroa.0.0.i, ptr %2, align 8
  %14 = getelementptr inbounds nuw i8, ptr %2, i64 8
  store i64 %.sroa.3.0.i, ptr %14, align 8
  %15 = call noundef zeroext i1 @_ZN7rocksdb6DBIter30SetValueAndColumnsFromBlobImplERKNS_5SliceES3_(ptr noundef nonnull align 8 dereferenceable(1112) %0, ptr noundef nonnull align 8 dereferenceable(16) %2, ptr noundef nonnull align 8 dereferenceable(16) %7)
  call void @llvm.lifetime.end.p0(i64 16, ptr nonnull %2) #25
  store ptr @.str, ptr %7, align 8, !tbaa !149
  store i64 0, ptr %3, align 8, !tbaa !150
  br label %16

16:                                               ; preds = %1, %6
  %.0 = phi i1 [ %15, %6 ], [ true, %1 ]
  ret i1 %.0
}